target datalayout = "e-m:e-p270:32:32-p271:32:32-p272:64:64-i64:64-i128:128-f80:128-n8:16:32:64-S128"
target triple = "x86_64-pc-linux-gnu"

%struct.__va_list_tag = type { i32, i32, ptr, ptr }

@stderr = external global ptr, align 8
@verbosity = internal global i32 0, align 4

; Function Attrs: nounwind uwtable
define internal void @imap_warn(ptr noundef %0, ...) #0 {
  %2 = alloca ptr, align 8
  %3 = alloca [1 x %struct.__va_list_tag], align 16
  store ptr %0, ptr %2, align 8, !tbaa !29
  call void @llvm.lifetime.start.p0(i64 24, ptr %3) #11
  %4 = load i32, ptr @verbosity, align 4, !tbaa !4
  %5 = icmp slt i32 -2, %4
  br i1 %5, label %6, label %13

6:                                                ; preds = %1
  %7 = getelementptr inbounds [1 x %struct.__va_list_tag], ptr %3, i64 0, i64 0
  call void @llvm.va_start.p0(ptr %7)
  %8 = load ptr, ptr @stderr, align 8, !tbaa !16
  %9 = load ptr, ptr %2, align 8, !tbaa !29
  %10 = getelementptr inbounds [1 x %struct.__va_list_tag], ptr %3, i64 0, i64 0
  %11 = call i32 @vfprintf(ptr noundef %8, ptr noundef %9, ptr noundef %10) #11
  %12 = getelementptr inbounds [1 x %struct.__va_list_tag], ptr %3, i64 0, i64 0
  call void @llvm.va_end.p0(ptr %12)
  br label %13

13:                                               ; preds = %6, %1
  call void @llvm.lifetime.end.p0(i64 24, ptr %3) #11
  ret void
}