; Function Attrs: nofree nounwind uwtable
define internal void @imap_warn(ptr readnone captures(none) %0, ...) unnamed_addr #10 {
  %2 = alloca [1 x %struct.__va_list_tag], align 16
  call void @llvm.lifetime.start.p0(i64 24, ptr nonnull %2) #22
  %3 = load i32, ptr @verbosity, align 4, !tbaa !19
  %4 = icmp sgt i32 %3, -2
  br i1 %4, label %5, label %8

5:                                                ; preds = %1
  call void @llvm.va_start.p0(ptr nonnull %2)
  %6 = load ptr, ptr @stderr, align 8, !tbaa !15
  %7 = call i32 @vfprintf(ptr noundef %6, ptr noundef nonnull @.str.60, ptr noundef nonnull %2) #26
  call void @llvm.va_end.p0(ptr nonnull %2)
  br label %8

8:                                                ; preds = %5, %1
  call void @llvm.lifetime.end.p0(i64 24, ptr nonnull %2) #22
  ret void
}